target datalayout = "e-m:e-p270:32:32-p271:32:32-p272:64:64-i64:64-i128:128-f80:128-n8:16:32:64-S128"
target triple = "x86_64-pc-linux-gnu"

%class.TransTableL = type { %class.TransTable, i32, i32, i32, i32, i32, i32, %"struct.TransTableL::pageStatsType", [8192 x %"struct.TransTableL::aggrType"], [12 x [4 x ptr]], [12 x [4 x ptr]], ptr, ptr, %"struct.TransTableL::harvestedType", i32, i32 }
%class.TransTable = type { ptr }
%"struct.TransTableL::pageStatsType" = type { i32, i32, i32, i32, i32 }
%"struct.TransTableL::aggrType" = type { [4 x i32], [4 x [4 x i32]] }
%"struct.TransTableL::harvestedType" = type { i32, [1000 x ptr] }
%"struct.TransTableL::distHashType" = type { i32, i32, [32 x %"struct.TransTableL::posSearchType"] }
%"struct.TransTableL::posSearchType" = type { ptr, i64 }

; Function Attrs: mustprogress nounwind uwtable
define void @_ZNK11TransTableL9KeyToDistExPi(ptr noundef nonnull align 8 dereferenceable(664216) %0, i64 noundef %1, ptr noundef %2) #5 align 2 {
  %4 = alloca ptr, align 8
  %5 = alloca i64, align 8
  %6 = alloca ptr, align 8
  store ptr %0, ptr %4, align 8
  store i64 %1, ptr %5, align 8
  store ptr %2, ptr %6, align 8
  %7 = load i64, ptr %5, align 8
  %8 = ashr i64 %7, 36
  %9 = and i64 %8, 4095
  %10 = trunc i64 %9 to i32
  %11 = load ptr, ptr %6, align 8
  %12 = getelementptr inbounds i32, ptr %11, i64 0
  store i32 %10, ptr %12, align 4
  %13 = load i64, ptr %5, align 8
  %14 = ashr i64 %13, 24
  %15 = and i64 %14, 4095
  %16 = trunc i64 %15 to i32
  %17 = load ptr, ptr %6, align 8
  %18 = getelementptr inbounds i32, ptr %17, i64 1
  store i32 %16, ptr %18, align 4
  %19 = load i64, ptr %5, align 8
  %20 = ashr i64 %19, 12
  %21 = and i64 %20, 4095
  %22 = trunc i64 %21 to i32
  %23 = load ptr, ptr %6, align 8
  %24 = getelementptr inbounds i32, ptr %23, i64 2
  store i32 %22, ptr %24, align 4
  %25 = load i64, ptr %5, align 8
  %26 = and i64 %25, 4095
  %27 = trunc i64 %26 to i32
  %28 = load ptr, ptr %6, align 8
  %29 = getelementptr inbounds i32, ptr %28, i64 3
  store i32 %27, ptr %29, align 4
  ret void
}

; Function Attrs: mustprogress nounwind uwtable
define noundef ptr @_ZNK11TransTableL16FindMatchingDistEiiPKi(ptr noundef nonnull align 8 dereferenceable(664216) %0, i32 noundef %1, i32 noundef %2, ptr noundef %3) #5 align 2 {
  %5 = alloca ptr, align 8
  %6 = alloca ptr, align 8
  %7 = alloca i32, align 4
  %8 = alloca i32, align 4
  %9 = alloca ptr, align 8
  %10 = alloca ptr, align 8
  %11 = alloca ptr, align 8
  %12 = alloca [4 x i32], align 16
  %13 = alloca i32, align 4
  %14 = alloca i32, align 4
  %15 = alloca i8, align 1
  %16 = alloca i32, align 4
  store ptr %0, ptr %6, align 8
  store i32 %1, ptr %7, align 4
  store i32 %2, ptr %8, align 4
  store ptr %3, ptr %9, align 8
  %17 = load ptr, ptr %6, align 8
  store i32 0, ptr %13, align 4
  br label %18

18:                                               ; preds = %84, %4
  %19 = load i32, ptr %13, align 4
  %20 = icmp slt i32 %19, 256
  br i1 %20, label %21, label %87

21:                                               ; preds = %18
  %22 = getelementptr inbounds nuw %class.TransTableL, ptr %17, i32 0, i32 9
  %23 = load i32, ptr %7, align 4
  %24 = sext i32 %23 to i64
  %25 = getelementptr inbounds [12 x [4 x ptr]], ptr %22, i64 0, i64 %24
  %26 = load i32, ptr %8, align 4
  %27 = sext i32 %26 to i64
  %28 = getelementptr inbounds [4 x ptr], ptr %25, i64 0, i64 %27
  %29 = load ptr, ptr %28, align 8
  %30 = load i32, ptr %13, align 4
  %31 = sext i32 %30 to i64
  %32 = getelementptr inbounds %"struct.TransTableL::distHashType", ptr %29, i64 %31
  store ptr %32, ptr %11, align 8
  store i32 0, ptr %14, align 4
  br label %33

33:                                               ; preds = %80, %21
  %34 = load i32, ptr %14, align 4
  %35 = load ptr, ptr %11, align 8
  %36 = getelementptr inbounds nuw %"struct.TransTableL::distHashType", ptr %35, i32 0, i32 0
  %37 = load i32, ptr %36, align 8
  %38 = icmp slt i32 %34, %37
  br i1 %38, label %39, label %83

39:                                               ; preds = %33
  %40 = load ptr, ptr %11, align 8
  %41 = getelementptr inbounds nuw %"struct.TransTableL::distHashType", ptr %40, i32 0, i32 2
  %42 = load i32, ptr %14, align 4
  %43 = sext i32 %42 to i64
  %44 = getelementptr inbounds [32 x %"struct.TransTableL::posSearchType"], ptr %41, i64 0, i64 %43
  %45 = getelementptr inbounds nuw %"struct.TransTableL::posSearchType", ptr %44, i32 0, i32 0
  %46 = load ptr, ptr %45, align 8
  store ptr %46, ptr %10, align 8
  %47 = load ptr, ptr %11, align 8
  %48 = getelementptr inbounds nuw %"struct.TransTableL::distHashType", ptr %47, i32 0, i32 2
  %49 = load i32, ptr %14, align 4
  %50 = sext i32 %49 to i64
  %51 = getelementptr inbounds [32 x %"struct.TransTableL::posSearchType"], ptr %48, i64 0, i64 %50
  %52 = getelementptr inbounds nuw %"struct.TransTableL::posSearchType", ptr %51, i32 0, i32 1
  %53 = load i64, ptr %52, align 8
  %54 = getelementptr inbounds [4 x i32], ptr %12, i64 0, i64 0
  call void @_ZNK11TransTableL9KeyToDistExPi(ptr noundef nonnull align 8 dereferenceable(664216) %17, i64 noundef %53, ptr noundef %54)
  store i8 1, ptr %15, align 1
  store i32 0, ptr %16, align 4
  br label %55

55:                                               ; preds = %71, %39
  %56 = load i32, ptr %16, align 4
  %57 = icmp slt i32 %56, 4
  br i1 %57, label %58, label %74

58:                                               ; preds = %55
  %59 = load i32, ptr %16, align 4
  %60 = sext i32 %59 to i64
  %61 = getelementptr inbounds [4 x i32], ptr %12, i64 0, i64 %60
  %62 = load i32, ptr %61, align 4
  %63 = load ptr, ptr %9, align 8
  %64 = load i32, ptr %16, align 4
  %65 = sext i32 %64 to i64
  %66 = getelementptr inbounds i32, ptr %63, i64 %65
  %67 = load i32, ptr %66, align 4
  %68 = icmp ne i32 %62, %67
  br i1 %68, label %69, label %70

69:                                               ; preds = %58
  store i8 0, ptr %15, align 1
  br label %74

70:                                               ; preds = %58
  br label %71

71:                                               ; preds = %70
  %72 = load i32, ptr %16, align 4
  %73 = add nsw i32 %72, 1
  store i32 %73, ptr %16, align 4
  br label %55, !llvm.loop !52

74:                                               ; preds = %69, %55
  %75 = load i8, ptr %15, align 1
  %76 = trunc i8 %75 to i1
  br i1 %76, label %77, label %79

77:                                               ; preds = %74
  %78 = load ptr, ptr %10, align 8
  store ptr %78, ptr %5, align 8
  br label %88

79:                                               ; preds = %74
  br label %80

80:                                               ; preds = %79
  %81 = load i32, ptr %14, align 4
  %82 = add nsw i32 %81, 1
  store i32 %82, ptr %14, align 4
  br label %33, !llvm.loop !53

83:                                               ; preds = %33
  br label %84

84:                                               ; preds = %83
  %85 = load i32, ptr %13, align 4
  %86 = add nsw i32 %85, 1
  store i32 %86, ptr %13, align 4
  br label %18, !llvm.loop !54

87:                                               ; preds = %18
  store ptr null, ptr %5, align 8
  br label %88

88:                                               ; preds = %87, %77
  %89 = load ptr, ptr %5, align 8
  ret ptr %89
}