; Function Attrs: mustprogress nofree norecurse nosync nounwind willreturn memory(read, inaccessiblemem: none) uwtable
define noundef ptr @_ZNK11TransTableL16FindMatchingDistEiiPKi(ptr nocapture noundef nonnull readonly align 8 dereferenceable(664216) %0, i32 noundef %1, i32 noundef %2, ptr nocapture noundef readonly %3) local_unnamed_addr #17 align 2 {
  %5 = alloca [4 x i32], align 16
  %6 = getelementptr inbounds nuw i8, ptr %0, i64 655416
  %7 = sext i32 %1 to i64
  %8 = sext i32 %2 to i64
  %9 = getelementptr inbounds [12 x [4 x ptr]], ptr %6, i64 0, i64 %7, i64 %8
  %10 = load ptr, ptr %9, align 8
  %11 = getelementptr inbounds i8, ptr %5, i64 4
  %12 = getelementptr inbounds i8, ptr %5, i64 8
  %13 = getelementptr inbounds i8, ptr %5, i64 12
  br label %14

14:                                               ; preds = %4, %._crit_edge
  %indvars.iv35 = phi i64 [ 0, %4 ], [ %indvars.iv.next36, %._crit_edge ]
  %15 = getelementptr inbounds %"struct.TransTableL::distHashType", ptr %10, i64 %indvars.iv35
  %16 = load i32, ptr %15, align 8
  %17 = icmp sgt i32 %16, 0
  br i1 %17, label %.lr.ph, label %._crit_edge

.lr.ph:                                           ; preds = %14
  %18 = getelementptr inbounds nuw i8, ptr %15, i64 8
  %wide.trip.count = zext nneg i32 %16 to i64
  br label %19

19:                                               ; preds = %.lr.ph, %40
  %indvars.iv31 = phi i64 [ 0, %.lr.ph ], [ %indvars.iv.next32, %40 ]
  %20 = getelementptr inbounds [32 x %"struct.TransTableL::posSearchType"], ptr %18, i64 0, i64 %indvars.iv31
  %21 = load ptr, ptr %20, align 8
  %22 = getelementptr inbounds nuw i8, ptr %20, i64 8
  %23 = load i64, ptr %22, align 8
  %24 = lshr i64 %23, 36
  %25 = trunc nuw nsw i64 %24 to i32
  %26 = and i32 %25, 4095
  store i32 %26, ptr %5, align 16
  %27 = lshr i64 %23, 24
  %28 = trunc i64 %27 to i32
  %29 = and i32 %28, 4095
  store i32 %29, ptr %11, align 4
  %30 = trunc i64 %23 to i32
  %31 = lshr i32 %30, 12
  %32 = and i32 %31, 4095
  store i32 %32, ptr %12, align 8
  %33 = and i32 %30, 4095
  store i32 %33, ptr %13, align 4
  br label %35

34:                                               ; preds = %35
  %indvars.iv.next = add nuw nsw i64 %indvars.iv, 1
  %exitcond = icmp eq i64 %indvars.iv.next, 4
  br i1 %exitcond, label %.critedge, label %35, !llvm.loop !73

35:                                               ; preds = %19, %34
  %indvars.iv = phi i64 [ 0, %19 ], [ %indvars.iv.next, %34 ]
  %36 = getelementptr inbounds [4 x i32], ptr %5, i64 0, i64 %indvars.iv
  %37 = load i32, ptr %36, align 4
  %38 = getelementptr inbounds i32, ptr %3, i64 %indvars.iv
  %39 = load i32, ptr %38, align 4
  %.not = icmp eq i32 %37, %39
  br i1 %.not, label %34, label %40

40:                                               ; preds = %35
  %indvars.iv.next32 = add nuw nsw i64 %indvars.iv31, 1
  %exitcond34.not = icmp eq i64 %indvars.iv.next32, %wide.trip.count
  br i1 %exitcond34.not, label %._crit_edge, label %19, !llvm.loop !74

._crit_edge:                                      ; preds = %40, %14
  %indvars.iv.next36 = add nuw nsw i64 %indvars.iv35, 1
  %exitcond38.not = icmp eq i64 %indvars.iv.next36, 256
  br i1 %exitcond38.not, label %.critedge, label %14, !llvm.loop !75

.critedge:                                        ; preds = %._crit_edge, %34
  %.023 = phi ptr [ %21, %34 ], [ null, %._crit_edge ]
  ret ptr %.023
}